; Function Attrs: mustprogress uwtable
define void @_ZN7Imf_3_218SampleCountChannelC2ERNS_14DeepImageLevelE(ptr noundef nonnull align 8 dereferenceable(104) %this, ptr noundef nonnull align 8 dereferenceable(192) %level) unnamed_addr #3 align 2 personality ptr @__gxx_personality_v0 {
entry:
  tail call void @_ZN7Imf_3_212ImageChannelC2ERNS_10ImageLevelEiib(ptr noundef nonnull align 8 dereferenceable(48) %this, ptr noundef nonnull align 8 dereferenceable(40) %level, i32 noundef 1, i32 noundef 1, i1 noundef zeroext false)
  store ptr getelementptr inbounds ({ [6 x ptr] }, ptr @_ZTVN7Imf_3_218SampleCountChannelE, i64 0, i32 0, i64 2), ptr %this, align 8
  %_numSamples = getelementptr inbounds i8, ptr %this, i64 48
  tail call void @llvm.memset.p0.i64(ptr noundef nonnull align 8 dereferenceable(56) %_numSamples, i8 0, i64 56, i1 false)
  invoke void @_ZN7Imf_3_218SampleCountChannel6resizeEv(ptr noundef nonnull align 8 dereferenceable(104) %this)
          to label %invoke.cont unwind label %lpad

invoke.cont:                                      ; preds = %entry
  ret void

lpad:                                             ; preds = %entry
  %0 = landingpad { ptr, i32 }
          cleanup
  tail call void @_ZN7Imf_3_212ImageChannelD2Ev(ptr noundef nonnull align 8 dereferenceable(48) %this) #13
  resume { ptr, i32 } %0
}